; Function Attrs: mustprogress uwtable
define void @proj_context_set_search_paths(ptr noundef %0, i32 noundef %1, ptr noundef %2) local_unnamed_addr #0 personality ptr @__gxx_personality_v0 {
  %4 = alloca %"class.std::vector", align 8
  %.not = icmp eq ptr %0, null
  br i1 %.not, label %5, label %.thread

5:                                                ; preds = %3
  %6 = tail call noundef ptr @_Z18pj_get_default_ctxv()
  %.not15 = icmp eq ptr %6, null
  br i1 %.not15, label %40, label %.thread

.thread:                                          ; preds = %3, %5
  %.019 = phi ptr [ %6, %5 ], [ %0, %3 ]
  call void @llvm.lifetime.start.p0(i64 24, ptr nonnull %4) #30
  call void @llvm.memset.p0.i64(ptr noundef nonnull align 8 dereferenceable(24) %4, i8 0, i64 24, i1 false)
  %7 = icmp sgt i32 %1, 0
  br i1 %7, label %.lr.ph.preheader, label %._crit_edge

.lr.ph.preheader:                                 ; preds = %.thread
  %wide.trip.count = zext nneg i32 %1 to i64
  br label %.lr.ph

._crit_edge:                                      ; preds = %10, %.thread
  invoke void @_ZN6pj_ctx16set_search_pathsERKSt6vectorINSt7__cxx1112basic_stringIcSt11char_traitsIcESaIcEEESaIS6_EE(ptr noundef nonnull align 8 dereferenceable(572) %.019, ptr noundef nonnull align 8 dereferenceable(24) %4)
          to label %13 unwind label %33

.lr.ph:                                           ; preds = %.lr.ph.preheader, %10
  %indvars.iv = phi i64 [ 0, %.lr.ph.preheader ], [ %indvars.iv.next, %10 ]
  %8 = getelementptr inbounds nuw ptr, ptr %2, i64 %indvars.iv
  %9 = invoke noundef nonnull align 8 dereferenceable(32) ptr @_ZNSt6vectorINSt7__cxx1112basic_stringIcSt11char_traitsIcESaIcEEESaIS5_EE12emplace_backIJRKPKcEEERS5_DpOT_(ptr noundef nonnull align 8 dereferenceable(24) %4, ptr noundef nonnull align 8 dereferenceable(8) %8)
          to label %10 unwind label %11

10:                                               ; preds = %.lr.ph
  %indvars.iv.next = add nuw nsw i64 %indvars.iv, 1
  %exitcond.not = icmp eq i64 %indvars.iv.next, %wide.trip.count
  br i1 %exitcond.not, label %._crit_edge, label %.lr.ph, !llvm.loop !169

11:                                               ; preds = %.lr.ph
  %12 = landingpad { ptr, i32 }
          cleanup
          catch ptr @_ZTISt9exception
  br label %35

13:                                               ; preds = %._crit_edge
  %14 = load ptr, ptr %4, align 8, !tbaa !137
  %15 = getelementptr inbounds nuw i8, ptr %4, i64 8
  %16 = load ptr, ptr %15, align 8, !tbaa !135
  %.not4.i.i.i.i = icmp eq ptr %14, %16
  br i1 %.not4.i.i.i.i, label %_ZSt8_DestroyIPNSt7__cxx1112basic_stringIcSt11char_traitsIcESaIcEEES5_EvT_S7_RSaIT0_E.exit.i, label %.lr.ph.i.i.i.i

.lr.ph.i.i.i.i:                                   ; preds = %13, %_ZSt8_DestroyINSt7__cxx1112basic_stringIcSt11char_traitsIcESaIcEEEEvPT_.exit.i.i.i.i
  %.05.i.i.i.i = phi ptr [ %25, %_ZSt8_DestroyINSt7__cxx1112basic_stringIcSt11char_traitsIcESaIcEEEEvPT_.exit.i.i.i.i ], [ %14, %13 ]
  %17 = load ptr, ptr %.05.i.i.i.i, align 8, !tbaa !11
  %18 = getelementptr inbounds nuw i8, ptr %.05.i.i.i.i, i64 16
  %19 = icmp eq ptr %17, %18
  br i1 %19, label %_ZNKSt7__cxx1112basic_stringIcSt11char_traitsIcESaIcEE11_M_is_localEv.exit.thread.i.i.i.i.i.i.i, label %_ZNKSt7__cxx1112basic_stringIcSt11char_traitsIcESaIcEE11_M_is_localEv.exit.i.i.i.i.i.i.i

_ZNKSt7__cxx1112basic_stringIcSt11char_traitsIcESaIcEE11_M_is_localEv.exit.thread.i.i.i.i.i.i.i: ; preds = %.lr.ph.i.i.i.i
  %20 = getelementptr inbounds nuw i8, ptr %.05.i.i.i.i, i64 8
  %21 = load i64, ptr %20, align 8, !tbaa !14
  %22 = icmp ult i64 %21, 16
  call void @llvm.assume(i1 %22)
  br label %_ZSt8_DestroyINSt7__cxx1112basic_stringIcSt11char_traitsIcESaIcEEEEvPT_.exit.i.i.i.i

_ZNKSt7__cxx1112basic_stringIcSt11char_traitsIcESaIcEE11_M_is_localEv.exit.i.i.i.i.i.i.i: ; preds = %.lr.ph.i.i.i.i
  %23 = load i64, ptr %18, align 8, !tbaa !16
  %24 = add i64 %23, 1
  call void @_ZdlPvm(ptr noundef %17, i64 noundef %24) #31
  br label %_ZSt8_DestroyINSt7__cxx1112basic_stringIcSt11char_traitsIcESaIcEEEEvPT_.exit.i.i.i.i

_ZSt8_DestroyINSt7__cxx1112basic_stringIcSt11char_traitsIcESaIcEEEEvPT_.exit.i.i.i.i: ; preds = %_ZNKSt7__cxx1112basic_stringIcSt11char_traitsIcESaIcEE11_M_is_localEv.exit.i.i.i.i.i.i.i, %_ZNKSt7__cxx1112basic_stringIcSt11char_traitsIcESaIcEE11_M_is_localEv.exit.thread.i.i.i.i.i.i.i
  %25 = getelementptr inbounds nuw i8, ptr %.05.i.i.i.i, i64 32
  %.not.i.i.i.i = icmp eq ptr %25, %16
  br i1 %.not.i.i.i.i, label %_ZSt8_DestroyIPNSt7__cxx1112basic_stringIcSt11char_traitsIcESaIcEEES5_EvT_S7_RSaIT0_E.exitthread-pre-split.i, label %.lr.ph.i.i.i.i, !llvm.loop !138

_ZSt8_DestroyIPNSt7__cxx1112basic_stringIcSt11char_traitsIcESaIcEEES5_EvT_S7_RSaIT0_E.exitthread-pre-split.i: ; preds = %_ZSt8_DestroyINSt7__cxx1112basic_stringIcSt11char_traitsIcESaIcEEEEvPT_.exit.i.i.i.i
  %.pr.i = load ptr, ptr %4, align 8, !tbaa !137
  br label %_ZSt8_DestroyIPNSt7__cxx1112basic_stringIcSt11char_traitsIcESaIcEEES5_EvT_S7_RSaIT0_E.exit.i

_ZSt8_DestroyIPNSt7__cxx1112basic_stringIcSt11char_traitsIcESaIcEEES5_EvT_S7_RSaIT0_E.exit.i: ; preds = %_ZSt8_DestroyIPNSt7__cxx1112basic_stringIcSt11char_traitsIcESaIcEEES5_EvT_S7_RSaIT0_E.exitthread-pre-split.i, %13
  %26 = phi ptr [ %.pr.i, %_ZSt8_DestroyIPNSt7__cxx1112basic_stringIcSt11char_traitsIcESaIcEEES5_EvT_S7_RSaIT0_E.exitthread-pre-split.i ], [ %14, %13 ]
  %.not.i.i.i = icmp eq ptr %26, null
  br i1 %.not.i.i.i, label %_ZNSt6vectorINSt7__cxx1112basic_stringIcSt11char_traitsIcESaIcEEESaIS5_EED2Ev.exit, label %27

27:                                               ; preds = %_ZSt8_DestroyIPNSt7__cxx1112basic_stringIcSt11char_traitsIcESaIcEEES5_EvT_S7_RSaIT0_E.exit.i
  %28 = getelementptr inbounds nuw i8, ptr %4, i64 16
  %29 = load ptr, ptr %28, align 8, !tbaa !136
  %30 = ptrtoint ptr %29 to i64
  %31 = ptrtoint ptr %26 to i64
  %32 = sub i64 %30, %31
  call void @_ZdlPvm(ptr noundef nonnull %26, i64 noundef %32) #31
  br label %_ZNSt6vectorINSt7__cxx1112basic_stringIcSt11char_traitsIcESaIcEEESaIS5_EED2Ev.exit

_ZNSt6vectorINSt7__cxx1112basic_stringIcSt11char_traitsIcESaIcEEESaIS5_EED2Ev.exit: ; preds = %_ZSt8_DestroyIPNSt7__cxx1112basic_stringIcSt11char_traitsIcESaIcEEES5_EvT_S7_RSaIT0_E.exit.i, %27
  call void @llvm.lifetime.end.p0(i64 24, ptr nonnull %4) #30
  br label %40

33:                                               ; preds = %._crit_edge
  %34 = landingpad { ptr, i32 }
          cleanup
          catch ptr @_ZTISt9exception
  br label %35

35:                                               ; preds = %33, %11
  %.pn = phi { ptr, i32 } [ %12, %11 ], [ %34, %33 ]
  %.011 = extractvalue { ptr, i32 } %.pn, 1
  call void @_ZNSt6vectorINSt7__cxx1112basic_stringIcSt11char_traitsIcESaIcEEESaIS5_EED2Ev(ptr noundef nonnull align 8 dereferenceable(24) %4) #30
  call void @llvm.lifetime.end.p0(i64 24, ptr nonnull %4) #30
  %36 = call i32 @llvm.eh.typeid.for.p0(ptr nonnull @_ZTISt9exception) #30
  %37 = icmp eq i32 %.011, %36
  br i1 %37, label %38, label %41

38:                                               ; preds = %35
  %.012 = extractvalue { ptr, i32 } %.pn, 0
  %39 = call ptr @__cxa_begin_catch(ptr %.012) #30
  call void @__cxa_end_catch()
  br label %40

40:                                               ; preds = %5, %38, %_ZNSt6vectorINSt7__cxx1112basic_stringIcSt11char_traitsIcESaIcEEESaIS5_EED2Ev.exit
  ret void

41:                                               ; preds = %35
  resume { ptr, i32 } %.pn
}